; Function Attrs: mustprogress nounwind uwtable
define internal fastcc void @_ZN12_GLOBAL__N_111buildStringERKN4llvh9StringRefES3_(ptr noalias nonnull align 8 %agg.result, ptr readonly captures(none) %a.0.val, i64 %a.8.val, ptr readonly captures(none) %b.0.val, i64 %b.8.val) unnamed_addr #0 {
entry:
  %add.ptr.i.i.i.i.i.i = getelementptr inbounds nuw i8, ptr %agg.result, i64 16
  store ptr %add.ptr.i.i.i.i.i.i, ptr %agg.result, align 8
  %Size.i.i.i.i.i.i = getelementptr inbounds nuw i8, ptr %agg.result, i64 8
  store i32 0, ptr %Size.i.i.i.i.i.i, align 8
  %Capacity2.i.i.i.i.i.i = getelementptr inbounds nuw i8, ptr %agg.result, i64 12
  store i32 256, ptr %Capacity2.i.i.i.i.i.i, align 4
  %cmp.i.i = icmp ugt i64 %a.8.val, 256
  br i1 %cmp.i.i, label %if.end.i.thread.i, label %if.end.i.i

if.end.i.thread.i:                                ; preds = %entry
  tail call void @_ZN4llvh15SmallVectorBase8grow_podEPvmm(ptr noundef nonnull align 8 dereferenceable(272) %agg.result, ptr noundef nonnull %add.ptr.i.i.i.i.i.i, i64 noundef %a.8.val, i64 noundef 1) #6
  %.pre13.pre.i.i = load i32, ptr %Size.i.i.i.i.i.i, align 8
  %0 = zext i32 %.pre13.pre.i.i to i64
  %.pre = load ptr, ptr %agg.result, align 8
  br label %if.then.i.i.i

if.end.i.i:                                       ; preds = %entry
  %cmp.not.i.i.i = icmp eq i64 %a.8.val, 0
  br i1 %cmp.not.i.i.i, label %_ZN4llvh11SmallStringILj256EE6appendENS_9StringRefE.exit, label %if.then.i.i.i

if.then.i.i.i:                                    ; preds = %if.end.i.i, %if.end.i.thread.i
  %1 = phi ptr [ %.pre, %if.end.i.thread.i ], [ %add.ptr.i.i.i.i.i.i, %if.end.i.i ]
  %.pre13.i4.i = phi i64 [ %0, %if.end.i.thread.i ], [ 0, %if.end.i.i ]
  %add.ptr.i.i.i = getelementptr inbounds nuw i8, ptr %1, i64 %.pre13.i4.i
  tail call void @llvm.memcpy.p0.p0.i64(ptr align 1 %add.ptr.i.i.i, ptr align 1 %a.0.val, i64 %a.8.val, i1 false)
  %.pre.i.i = load i32, ptr %Size.i.i.i.i.i.i, align 8
  %.pre1 = load i32, ptr %Capacity2.i.i.i.i.i.i, align 4
  %2 = zext i32 %.pre1 to i64
  br label %_ZN4llvh11SmallStringILj256EE6appendENS_9StringRefE.exit

_ZN4llvh11SmallStringILj256EE6appendENS_9StringRefE.exit: ; preds = %if.end.i.i, %if.then.i.i.i
  %conv.i.i.i2 = phi i64 [ 256, %if.end.i.i ], [ %2, %if.then.i.i.i ]
  %3 = phi i32 [ 0, %if.end.i.i ], [ %.pre.i.i, %if.then.i.i.i ]
  %4 = trunc i64 %a.8.val to i32
  %conv.i12.i.i = add i32 %3, %4
  store i32 %conv.i12.i.i, ptr %Size.i.i.i.i.i.i, align 8
  %conv.i5.i.i4 = zext i32 %conv.i12.i.i to i64
  %sub.i.i5 = sub nsw i64 %conv.i.i.i2, %conv.i5.i.i4
  %cmp.i.i6 = icmp ugt i64 %b.8.val, %sub.i.i5
  br i1 %cmp.i.i6, label %if.end.i.thread.i15, label %if.end.i.i7

if.end.i.thread.i15:                              ; preds = %_ZN4llvh11SmallStringILj256EE6appendENS_9StringRefE.exit
  %add.i.i16 = add i64 %b.8.val, %conv.i5.i.i4
  tail call void @_ZN4llvh15SmallVectorBase8grow_podEPvmm(ptr noundef nonnull align 8 dereferenceable(272) %agg.result, ptr noundef nonnull %add.ptr.i.i.i.i.i.i, i64 noundef %add.i.i16, i64 noundef 1) #6
  %.pre13.pre.i.i18 = load i32, ptr %Size.i.i.i.i.i.i, align 8
  %.pre2 = zext i32 %.pre13.pre.i.i18 to i64
  br label %if.then.i.i.i9

if.end.i.i7:                                      ; preds = %_ZN4llvh11SmallStringILj256EE6appendENS_9StringRefE.exit
  %cmp.not.i.i.i8 = icmp eq i64 %b.8.val, 0
  br i1 %cmp.not.i.i.i8, label %_ZN4llvh11SmallStringILj256EE6appendENS_9StringRefE.exit19, label %if.then.i.i.i9

if.then.i.i.i9:                                   ; preds = %if.end.i.i7, %if.end.i.thread.i15
  %conv.i9.i.i11.pre-phi = phi i64 [ %conv.i5.i.i4, %if.end.i.i7 ], [ %.pre2, %if.end.i.thread.i15 ]
  %5 = load ptr, ptr %agg.result, align 8
  %add.ptr.i.i.i12 = getelementptr inbounds nuw i8, ptr %5, i64 %conv.i9.i.i11.pre-phi
  tail call void @llvm.memcpy.p0.p0.i64(ptr align 1 %add.ptr.i.i.i12, ptr align 1 %b.0.val, i64 %b.8.val, i1 false)
  %.pre.i.i13 = load i32, ptr %Size.i.i.i.i.i.i, align 8
  br label %_ZN4llvh11SmallStringILj256EE6appendENS_9StringRefE.exit19

_ZN4llvh11SmallStringILj256EE6appendENS_9StringRefE.exit19: ; preds = %if.end.i.i7, %if.then.i.i.i9
  %6 = phi i32 [ %conv.i12.i.i, %if.end.i.i7 ], [ %.pre.i.i13, %if.then.i.i.i9 ]
  %7 = trunc i64 %b.8.val to i32
  %conv.i12.i.i14 = add i32 %6, %7
  store i32 %conv.i12.i.i14, ptr %Size.i.i.i.i.i.i, align 8
  ret void
}